; Function Attrs: nounwind uwtable
define internal ptr @tts_minimal_copy_heap_tuple(ptr noundef captures(none) %0) #1 {
  %2 = getelementptr inbounds nuw i8, ptr %0, i64 72
  %3 = load ptr, ptr %2, align 8
  %.not = icmp eq ptr %3, null
  br i1 %.not, label %4, label %tts_minimal_materialize.exit

4:                                                ; preds = %1
  %5 = getelementptr inbounds nuw i8, ptr %0, i64 4
  %6 = load i16, ptr %5, align 4
  %7 = and i16 %6, 4
  %.not.i = icmp eq i16 %7, 0
  br i1 %.not.i, label %8, label %tts_minimal_materialize.exit

8:                                                ; preds = %4
  %9 = getelementptr inbounds nuw i8, ptr %0, i64 40
  %10 = load ptr, ptr %9, align 8
  %11 = load ptr, ptr @CurrentMemoryContext, align 8
  store ptr %10, ptr @CurrentMemoryContext, align 8
  %12 = getelementptr inbounds nuw i8, ptr %0, i64 6
  store i16 0, ptr %12, align 2
  %13 = getelementptr inbounds nuw i8, ptr %0, i64 104
  store i32 0, ptr %13, align 8
  %14 = getelementptr inbounds nuw i8, ptr %0, i64 16
  %15 = load ptr, ptr %14, align 8
  %16 = getelementptr inbounds nuw i8, ptr %0, i64 24
  %17 = load ptr, ptr %16, align 8
  %18 = getelementptr inbounds nuw i8, ptr %0, i64 32
  %19 = load ptr, ptr %18, align 8
  %20 = tail call ptr @heap_form_minimal_tuple(ptr noundef %15, ptr noundef %17, ptr noundef %19) #14
  store ptr %20, ptr %2, align 8
  %21 = load i16, ptr %5, align 4
  %22 = or i16 %21, 4
  store i16 %22, ptr %5, align 4
  %23 = load i32, ptr %20, align 4
  %24 = add i32 %23, 8
  %25 = getelementptr inbounds nuw i8, ptr %0, i64 80
  store i32 %24, ptr %25, align 8
  %26 = getelementptr inbounds i8, ptr %20, i64 -8
  %27 = getelementptr inbounds nuw i8, ptr %0, i64 96
  store ptr %26, ptr %27, align 8
  store ptr %11, ptr @CurrentMemoryContext, align 8
  br label %tts_minimal_materialize.exit

tts_minimal_materialize.exit:                     ; preds = %8, %4, %1
  %28 = phi ptr [ %20, %8 ], [ null, %4 ], [ %3, %1 ]
  %29 = tail call ptr @heap_tuple_from_minimal_tuple(ptr noundef %28) #14
  ret ptr %29
}